target datalayout = "e-m:e-p270:32:32-p271:32:32-p272:64:64-i64:64-i128:128-f80:128-n8:16:32:64-S128"
target triple = "x86_64-unknown-linux-gnu"

%struct.USBPortOps = type { ptr, ptr, ptr, ptr, ptr }
%struct.EHCIState = type { %struct.USBBus, ptr, ptr, %struct.MemoryRegion, ptr, %struct.MemoryRegion, %struct.MemoryRegion, %struct.MemoryRegion, i32, i8, i16, i16, i16, i16, i32, [16 x i8], %union.anon.5, [6 x i32], ptr, ptr, i8, i32, i32, [6 x %struct.USBPort], [6 x ptr], i32, i32, %union.EHCIQueueHead, %union.EHCIQueueHead, i32, i32, %struct.USBPacket, %struct.QEMUSGList, i64, i32, i32, i8, ptr }
%struct.USBBus = type { %struct.BusState, ptr, i32, i32, i32, %union.anon, %union.anon.0, %union.anon.1 }
%struct.BusState = type { %struct.Object, ptr, ptr, ptr, i32, i8, i8, i32, %union.BusChildHead, %struct.BusStateEntry, %struct.ResettableState }
%struct.Object = type { ptr, ptr, ptr, i32, ptr }
%union.BusChildHead = type { %struct.QTailQLink }
%struct.QTailQLink = type { ptr, ptr }
%struct.BusStateEntry = type { ptr, ptr }
%struct.ResettableState = type { i32, i8, i8 }
%union.anon = type { %struct.QTailQLink }
%union.anon.0 = type { %struct.QTailQLink }
%union.anon.1 = type { %struct.QTailQLink }
%struct.MemoryRegion = type { %struct.Object, i8, i8, i8, i8, i8, i8, i8, i8, i8, i8, ptr, ptr, ptr, ptr, ptr, ptr, i32, i128, i64, ptr, i64, i8, i8, i8, i8, i8, ptr, i64, i32, %union.anon.2, %union.anon.3, %union.anon.4, ptr, i32, ptr, ptr, i8 }
%union.anon.2 = type { %struct.QTailQLink }
%union.anon.3 = type { %struct.QTailQLink }
%union.anon.4 = type { %struct.QTailQLink }
%union.anon.5 = type { [17 x i32] }
%struct.USBPort = type { ptr, i32, i32, [16 x i8], ptr, ptr, i32, %union.anon.6 }
%union.anon.6 = type { %struct.QTailQLink }
%union.EHCIQueueHead = type { %struct.QTailQLink }
%struct.USBPacket = type { i32, i64, ptr, i32, %struct.QEMUIOVector, i64, i8, i8, i32, i32, i32, ptr, %union.anon.10, %union.anon.11 }
%struct.QEMUIOVector = type { ptr, i32, %union.anon.7 }
%union.anon.7 = type { %struct.anon.8 }
%struct.anon.8 = type { i32, %struct.iovec }
%struct.iovec = type { ptr, i64 }
%union.anon.10 = type { %struct.QTailQLink }
%union.anon.11 = type { %struct.QTailQLink }
%struct.QEMUSGList = type { ptr, i32, i32, i64, ptr, ptr }
%struct.EHCIQueue = type { ptr, %union.anon.16, i32, i64, i32, i32, %struct.EHCIqh, i32, i32, i32, ptr, %union.anon.17 }
%union.anon.16 = type { %struct.QTailQLink }
%struct.EHCIqh = type { i32, i32, i32, i32, i32, i32, i32, [5 x i32] }
%union.anon.17 = type { %struct.QTailQLink }

; Function Attrs: nounwind sspstrong uwtable
define internal void @ehci_queues_rip_device(ptr noundef %ehci, ptr noundef %dev, i32 noundef %async) #0 {
entry:
  %ehci.addr = alloca ptr, align 8
  %dev.addr = alloca ptr, align 8
  %async.addr = alloca i32, align 4
  %head = alloca ptr, align 8
  %q = alloca ptr, align 8
  %tmp = alloca ptr, align 8
  store ptr %ehci, ptr %ehci.addr, align 8
  store ptr %dev, ptr %dev.addr, align 8
  store i32 %async, ptr %async.addr, align 4
  %0 = load i32, ptr %async.addr, align 4
  %tobool = icmp ne i32 %0, 0
  br i1 %tobool, label %cond.true, label %cond.false

cond.true:                                        ; preds = %entry
  %1 = load ptr, ptr %ehci.addr, align 8
  %aqueues = getelementptr inbounds %struct.EHCIState, ptr %1, i32 0, i32 27
  br label %cond.end

cond.false:                                       ; preds = %entry
  %2 = load ptr, ptr %ehci.addr, align 8
  %pqueues = getelementptr inbounds %struct.EHCIState, ptr %2, i32 0, i32 28
  br label %cond.end

cond.end:                                         ; preds = %cond.false, %cond.true
  %cond = phi ptr [ %aqueues, %cond.true ], [ %pqueues, %cond.false ]
  store ptr %cond, ptr %head, align 8
  %3 = load ptr, ptr %head, align 8
  %4 = load ptr, ptr %3, align 8
  store ptr %4, ptr %q, align 8
  br label %for.cond

for.cond:                                         ; preds = %for.inc, %cond.end
  %5 = load ptr, ptr %q, align 8
  %tobool1 = icmp ne ptr %5, null
  br i1 %tobool1, label %land.rhs, label %land.end

land.rhs:                                         ; preds = %for.cond
  %6 = load ptr, ptr %q, align 8
  %next = getelementptr inbounds %struct.EHCIQueue, ptr %6, i32 0, i32 1
  %7 = load ptr, ptr %next, align 8
  store ptr %7, ptr %tmp, align 8
  br label %land.end

land.end:                                         ; preds = %land.rhs, %for.cond
  %8 = phi i1 [ false, %for.cond ], [ true, %land.rhs ]
  br i1 %8, label %for.body, label %for.end

for.body:                                         ; preds = %land.end
  %9 = load ptr, ptr %q, align 8
  %dev2 = getelementptr inbounds %struct.EHCIQueue, ptr %9, i32 0, i32 10
  %10 = load ptr, ptr %dev2, align 8
  %11 = load ptr, ptr %dev.addr, align 8
  %cmp = icmp ne ptr %10, %11
  br i1 %cmp, label %if.then, label %if.end

if.then:                                          ; preds = %for.body
  br label %for.inc

if.end:                                           ; preds = %for.body
  %12 = load ptr, ptr %q, align 8
  call void @ehci_free_queue(ptr noundef %12, ptr noundef null)
  br label %for.inc

for.inc:                                          ; preds = %if.end, %if.then
  %13 = load ptr, ptr %tmp, align 8
  store ptr %13, ptr %q, align 8
  br label %for.cond, !llvm.loop !18

for.end:                                          ; preds = %land.end
  ret void
}

; Function Attrs: nounwind sspstrong uwtable
define internal void @ehci_child_detach(ptr noundef %port, ptr noundef %child) #0 {
entry:
  %port.addr = alloca ptr, align 8
  %child.addr = alloca ptr, align 8
  %s = alloca ptr, align 8
  %portsc = alloca i32, align 4
  %companion = alloca ptr, align 8
  store ptr %port, ptr %port.addr, align 8
  store ptr %child, ptr %child.addr, align 8
  %0 = load ptr, ptr %port.addr, align 8
  %opaque = getelementptr inbounds %struct.USBPort, ptr %0, i32 0, i32 5
  %1 = load ptr, ptr %opaque, align 8
  store ptr %1, ptr %s, align 8
  %2 = load ptr, ptr %s, align 8
  %portsc1 = getelementptr inbounds %struct.EHCIState, ptr %2, i32 0, i32 17
  %3 = load ptr, ptr %port.addr, align 8
  %index = getelementptr inbounds %struct.USBPort, ptr %3, i32 0, i32 6
  %4 = load i32, ptr %index, align 8
  %idxprom = sext i32 %4 to i64
  %arrayidx = getelementptr [6 x i32], ptr %portsc1, i64 0, i64 %idxprom
  %5 = load i32, ptr %arrayidx, align 4
  store i32 %5, ptr %portsc, align 4
  %6 = load i32, ptr %portsc, align 4
  %and = and i32 %6, 8192
  %tobool = icmp ne i32 %and, 0
  br i1 %tobool, label %if.then, label %if.end

if.then:                                          ; preds = %entry
  %7 = load ptr, ptr %s, align 8
  %companion_ports = getelementptr inbounds %struct.EHCIState, ptr %7, i32 0, i32 24
  %8 = load ptr, ptr %port.addr, align 8
  %index2 = getelementptr inbounds %struct.USBPort, ptr %8, i32 0, i32 6
  %9 = load i32, ptr %index2, align 8
  %idxprom3 = sext i32 %9 to i64
  %arrayidx4 = getelementptr [6 x ptr], ptr %companion_ports, i64 0, i64 %idxprom3
  %10 = load ptr, ptr %arrayidx4, align 8
  store ptr %10, ptr %companion, align 8
  %11 = load ptr, ptr %companion, align 8
  %ops = getelementptr inbounds %struct.USBPort, ptr %11, i32 0, i32 4
  %12 = load ptr, ptr %ops, align 8
  %child_detach = getelementptr inbounds %struct.USBPortOps, ptr %12, i32 0, i32 2
  %13 = load ptr, ptr %child_detach, align 8
  %14 = load ptr, ptr %companion, align 8
  %15 = load ptr, ptr %child.addr, align 8
  call void %13(ptr noundef %14, ptr noundef %15)
  br label %return

if.end:                                           ; preds = %entry
  %16 = load ptr, ptr %s, align 8
  %17 = load ptr, ptr %child.addr, align 8
  call void @ehci_queues_rip_device(ptr noundef %16, ptr noundef %17, i32 noundef 0)
  %18 = load ptr, ptr %s, align 8
  %19 = load ptr, ptr %child.addr, align 8
  call void @ehci_queues_rip_device(ptr noundef %18, ptr noundef %19, i32 noundef 1)
  br label %return

return:                                           ; preds = %if.end, %if.then
  ret void
}