; Function Attrs: nounwind sspstrong uwtable
define internal void @ehci_child_detach(ptr noundef readonly captures(none) %port, ptr noundef %child) #0 {
entry:
  %opaque = getelementptr inbounds nuw i8, ptr %port, i64 40
  %0 = load ptr, ptr %opaque, align 8
  %portsc1 = getelementptr inbounds nuw i8, ptr %0, i64 1416
  %index = getelementptr inbounds nuw i8, ptr %port, i64 48
  %1 = load i32, ptr %index, align 8
  %idxprom = sext i32 %1 to i64
  %arrayidx = getelementptr [6 x i32], ptr %portsc1, i64 0, i64 %idxprom
  %2 = load i32, ptr %arrayidx, align 4
  %and = and i32 %2, 8192
  %tobool.not = icmp eq i32 %and, 0
  br i1 %tobool.not, label %if.end, label %if.then

if.then:                                          ; preds = %entry
  %companion_ports = getelementptr inbounds nuw i8, ptr %0, i64 1904
  %arrayidx4 = getelementptr [6 x ptr], ptr %companion_ports, i64 0, i64 %idxprom
  %3 = load ptr, ptr %arrayidx4, align 8
  %ops = getelementptr inbounds nuw i8, ptr %3, i64 32
  %4 = load ptr, ptr %ops, align 8
  %child_detach = getelementptr inbounds nuw i8, ptr %4, i64 16
  %5 = load ptr, ptr %child_detach, align 8
  tail call void %5(ptr noundef %3, ptr noundef %child) #17
  br label %return

if.end:                                           ; preds = %entry
  %cond.i = getelementptr inbounds nuw i8, ptr %0, i64 1976
  %6 = load ptr, ptr %cond.i, align 8
  %tobool1.not5.i = icmp eq ptr %6, null
  br i1 %tobool1.not5.i, label %ehci_queues_rip_device.exit, label %land.rhs.i

land.rhs.i:                                       ; preds = %if.end, %for.inc.i
  %q.06.i = phi ptr [ %7, %for.inc.i ], [ %6, %if.end ]
  %next.i = getelementptr inbounds nuw i8, ptr %q.06.i, i64 8
  %7 = load ptr, ptr %next.i, align 8
  %dev2.i = getelementptr inbounds nuw i8, ptr %q.06.i, i64 112
  %8 = load ptr, ptr %dev2.i, align 8
  %cmp.not.i = icmp eq ptr %8, %child
  br i1 %cmp.not.i, label %if.end.i, label %for.inc.i

if.end.i:                                         ; preds = %land.rhs.i
  tail call fastcc void @ehci_free_queue(ptr noundef %q.06.i, ptr noundef null)
  br label %for.inc.i

for.inc.i:                                        ; preds = %if.end.i, %land.rhs.i
  %tobool1.not.i = icmp eq ptr %7, null
  br i1 %tobool1.not.i, label %ehci_queues_rip_device.exit, label %land.rhs.i, !llvm.loop !20

ehci_queues_rip_device.exit:                      ; preds = %for.inc.i, %if.end
  %cond.i9 = getelementptr inbounds nuw i8, ptr %0, i64 1960
  %9 = load ptr, ptr %cond.i9, align 8
  %tobool1.not5.i10 = icmp eq ptr %9, null
  br i1 %tobool1.not5.i10, label %return, label %land.rhs.i11

land.rhs.i11:                                     ; preds = %ehci_queues_rip_device.exit, %for.inc.i16
  %q.06.i12 = phi ptr [ %10, %for.inc.i16 ], [ %9, %ehci_queues_rip_device.exit ]
  %next.i13 = getelementptr inbounds nuw i8, ptr %q.06.i12, i64 8
  %10 = load ptr, ptr %next.i13, align 8
  %dev2.i14 = getelementptr inbounds nuw i8, ptr %q.06.i12, i64 112
  %11 = load ptr, ptr %dev2.i14, align 8
  %cmp.not.i15 = icmp eq ptr %11, %child
  br i1 %cmp.not.i15, label %if.end.i18, label %for.inc.i16

if.end.i18:                                       ; preds = %land.rhs.i11
  tail call fastcc void @ehci_free_queue(ptr noundef %q.06.i12, ptr noundef null)
  br label %for.inc.i16

for.inc.i16:                                      ; preds = %if.end.i18, %land.rhs.i11
  %tobool1.not.i17 = icmp eq ptr %10, null
  br i1 %tobool1.not.i17, label %return, label %land.rhs.i11, !llvm.loop !20

return:                                           ; preds = %for.inc.i16, %ehci_queues_rip_device.exit, %if.then
  ret void
}